target datalayout = "e-m:e-p270:32:32-p271:32:32-p272:64:64-i64:64-i128:128-f80:128-n8:16:32:64-S128"
target triple = "x86_64-pc-linux-gnu"

; Function Attrs: mustprogress nounwind uwtable
define void @_ZN6Square15FactorEdgeIndexEiRiS0_(i32 noundef %0, ptr noundef nonnull align 4 dereferenceable(4) %1, ptr noundef nonnull align 4 dereferenceable(4) %2) #1 align 2 {
  %4 = alloca i32, align 4
  %5 = alloca ptr, align 8
  %6 = alloca ptr, align 8
  store i32 %0, ptr %4, align 4
  store ptr %1, ptr %5, align 8
  store ptr %2, ptr %6, align 8
  %7 = load i32, ptr %4, align 4
  switch i32 %7, label %20 [
    i32 0, label %8
    i32 2, label %8
    i32 1, label %13
    i32 3, label %13
  ]

8:                                                ; preds = %3, %3
  %9 = load ptr, ptr %5, align 8
  store i32 0, ptr %9, align 4
  %10 = load i32, ptr %4, align 4
  %11 = sdiv i32 %10, 2
  %12 = load ptr, ptr %6, align 8
  store i32 %11, ptr %12, align 4
  br label %20

13:                                               ; preds = %3, %3
  %14 = load ptr, ptr %5, align 8
  store i32 1, ptr %14, align 4
  %15 = load i32, ptr %4, align 4
  %16 = sdiv i32 %15, 2
  %17 = add nsw i32 %16, 1
  %18 = srem i32 %17, 2
  %19 = load ptr, ptr %6, align 8
  store i32 %18, ptr %19, align 4
  br label %20

20:                                               ; preds = %13, %8, %3
  ret void
}