; Function Attrs: mustprogress nofree norecurse nosync nounwind willreturn memory(argmem: write) uwtable
define void @_ZN6Square15FactorEdgeIndexEiRiS0_(i32 noundef %0, ptr noundef nonnull writeonly align 4 captures(none) dereferenceable(4) %1, ptr noundef nonnull writeonly align 4 captures(none) dereferenceable(4) %2) local_unnamed_addr #1 align 2 {
  switch i32 %0, label %7 [
    i32 0, label %4
    i32 2, label %4
    i32 1, label %5
    i32 3, label %5
  ]

4:                                                ; preds = %3, %3
  store i32 0, ptr %1, align 4
  %.cmp = icmp samesign ugt i32 %0, 1
  br label %.sink.split

5:                                                ; preds = %3, %3
  store i32 1, ptr %1, align 4
  %.cmp6 = icmp samesign ult i32 %0, 2
  br label %.sink.split

.sink.split:                                      ; preds = %4, %5
  %.cmp6.sink = phi i1 [ %.cmp6, %5 ], [ %.cmp, %4 ]
  %6 = zext i1 %.cmp6.sink to i32
  store i32 %6, ptr %2, align 4
  br label %7

7:                                                ; preds = %.sink.split, %3
  ret void
}